target datalayout = "e-m:e-p270:32:32-p271:32:32-p272:64:64-i64:64-i128:128-f80:128-n8:16:32:64-S128"
target triple = "x86_64-pc-linux-gnu"

%class.GrowableArrayBase = type { i32, i32 }
%class.GrowableArrayMetadata = type { i64 }
%class.GraphBuilder = type <{ ptr, ptr, ptr, ptr, ptr, i32, [4 x i8], ptr, ptr, ptr, ptr, ptr, ptr, i8, [7 x i8] }>
%class.MemoryBuffer = type { [8 x i8], %class.FieldBuffer, %class.GrowableArray.17, %class.GrowableArray.17, %class.GrowableArray.20 }
%class.FieldBuffer = type { %class.GrowableArray.17 }
%class.GrowableArray.17 = type { %class.GrowableArrayWithAllocator.18, %class.GrowableArrayMetadata }
%class.GrowableArrayWithAllocator.18 = type { %class.GrowableArrayView.19 }
%class.GrowableArrayView.19 = type { %class.GrowableArrayBase, ptr }
%class.GrowableArray.20 = type { %class.GrowableArrayWithAllocator.21, %class.GrowableArrayMetadata }
%class.GrowableArrayWithAllocator.21 = type { %class.GrowableArrayView.22 }
%class.GrowableArrayView.22 = type { %class.GrowableArrayBase, ptr }

; Function Attrs: mustprogress nounwind uwtable
define linkonce_odr hidden void @_ZN11FieldBuffer4killEv(ptr noundef nonnull align 8 dereferenceable(24) %0) #1 comdat align 2 {
  %2 = alloca ptr, align 8
  store ptr %0, ptr %2, align 8
  %3 = load ptr, ptr %2, align 8
  %4 = getelementptr inbounds %class.FieldBuffer, ptr %3, i32 0, i32 0
  call void @_ZN17GrowableArrayBase8trunc_toEi(ptr noundef nonnull align 4 dereferenceable(8) %4, i32 noundef 0)
  ret void
}

; Function Attrs: mustprogress nounwind uwtable
define linkonce_odr hidden void @_ZN17GrowableArrayBase8trunc_toEi(ptr noundef nonnull align 4 dereferenceable(8) %0, i32 noundef %1) #1 comdat align 2 {
  %3 = alloca ptr, align 8
  %4 = alloca i32, align 4
  store ptr %0, ptr %3, align 8
  store i32 %1, ptr %4, align 4
  %5 = load ptr, ptr %3, align 8
  %6 = load i32, ptr %4, align 4
  %7 = getelementptr inbounds %class.GrowableArrayBase, ptr %5, i32 0, i32 0
  store i32 %6, ptr %7, align 4
  ret void
}

; Function Attrs: mustprogress nounwind uwtable
define linkonce_odr hidden void @_ZN12MemoryBuffer4killEv(ptr noundef nonnull align 8 dereferenceable(104) %0) #1 comdat align 2 {
  %2 = alloca ptr, align 8
  store ptr %0, ptr %2, align 8
  %3 = load ptr, ptr %2, align 8
  %4 = getelementptr inbounds %class.MemoryBuffer, ptr %3, i32 0, i32 3
  call void @_ZN17GrowableArrayBase8trunc_toEi(ptr noundef nonnull align 4 dereferenceable(8) %4, i32 noundef 0)
  %5 = getelementptr inbounds %class.MemoryBuffer, ptr %3, i32 0, i32 2
  call void @_ZN17GrowableArrayBase8trunc_toEi(ptr noundef nonnull align 4 dereferenceable(8) %5, i32 noundef 0)
  %6 = getelementptr inbounds %class.MemoryBuffer, ptr %3, i32 0, i32 1
  call void @_ZN11FieldBuffer4killEv(ptr noundef nonnull align 8 dereferenceable(24) %6)
  ret void
}

; Function Attrs: mustprogress nounwind uwtable
define linkonce_odr hidden noundef ptr @_ZNK12GraphBuilder4vmapEv(ptr noundef nonnull align 8 dereferenceable(97) %0) #1 comdat align 2 {
  %2 = alloca ptr, align 8
  store ptr %0, ptr %2, align 8
  %3 = load ptr, ptr %2, align 8
  %4 = getelementptr inbounds %class.GraphBuilder, ptr %3, i32 0, i32 2
  %5 = load ptr, ptr %4, align 8
  ret ptr %5
}

; Function Attrs: mustprogress nounwind uwtable
define hidden void @_ZN12GraphBuilder8kill_allEv(ptr noundef nonnull align 8 dereferenceable(97) %0) #1 align 2 {
  %2 = alloca ptr, align 8
  store ptr %0, ptr %2, align 8
  %3 = load ptr, ptr %2, align 8
  %4 = call noundef ptr @_ZNK12GraphBuilder4vmapEv(ptr noundef nonnull align 8 dereferenceable(97) %3)
  call void @_ZN8ValueMap8kill_allEv(ptr noundef nonnull align 8 dereferenceable(52) %4)
  %5 = getelementptr inbounds %class.GraphBuilder, ptr %3, i32 0, i32 3
  %6 = load ptr, ptr %5, align 8
  call void @_ZN12MemoryBuffer4killEv(ptr noundef nonnull align 8 dereferenceable(104) %6)
  ret void
}