; Function Attrs: mustprogress nounwind uwtable
define hidden void @_ZN12GraphBuilder8kill_allEv(ptr nocapture noundef nonnull readonly align 8 dereferenceable(97) %0) local_unnamed_addr #0 align 2 {
  %2 = getelementptr inbounds i8, ptr %0, i64 16
  %3 = load ptr, ptr %2, align 8
  tail call void @_ZN8ValueMap8kill_allEv(ptr noundef nonnull align 8 dereferenceable(52) %3) #19
  %4 = getelementptr inbounds i8, ptr %0, i64 24
  %5 = load ptr, ptr %4, align 8
  %6 = getelementptr inbounds i8, ptr %5, i64 56
  store i32 0, ptr %6, align 4
  %7 = getelementptr inbounds i8, ptr %5, i64 32
  store i32 0, ptr %7, align 4
  %8 = getelementptr inbounds i8, ptr %5, i64 8
  store i32 0, ptr %8, align 4
  ret void
}